; Function Attrs: nounwind uwtable
define range(i32 -2147483648, 1) i32 @RsaEnc(ptr noundef readonly captures(none) %0, ptr noundef %1, i32 noundef %2, ptr noundef %3, ptr noundef captures(none) %4, ptr noundef %5, ptr noundef readnone captures(none) %6) local_unnamed_addr #5 {
  %8 = load i32, ptr %4, align 4, !tbaa !49
  %9 = getelementptr inbounds nuw i8, ptr %0, i64 152
  %10 = load ptr, ptr %9, align 8, !tbaa !116
  %11 = tail call i32 @wc_RsaPublicEncrypt(ptr noundef %1, i32 noundef %2, ptr noundef %3, i32 noundef %8, ptr noundef %5, ptr noundef %10) #26
  %12 = icmp sgt i32 %11, 0
  br i1 %12, label %13, label %14

13:                                               ; preds = %7
  store i32 %11, ptr %4, align 4, !tbaa !49
  br label %14

14:                                               ; preds = %7, %13
  %.0 = phi i32 [ 0, %13 ], [ %11, %7 ]
  ret i32 %.0
}